target datalayout = "e-m:e-p270:32:32-p271:32:32-p272:64:64-i64:64-i128:128-f80:128-n8:16:32:64-S128"
target triple = "x86_64-pc-linux-gnu"

%struct.lxb_encoding_encode_t = type { ptr, ptr, i64, i64, ptr, i64, i32 }

; Function Attrs: nounwind uwtable
define hidden i32 @lxb_encoding_encode_x_user_defined(ptr noundef %0, ptr noundef %1, ptr noundef %2) #0 {
  %4 = alloca i32, align 4
  %5 = alloca ptr, align 8
  %6 = alloca ptr, align 8
  %7 = alloca ptr, align 8
  %8 = alloca i32, align 4
  store ptr %0, ptr %5, align 8
  store ptr %1, ptr %6, align 8
  store ptr %2, ptr %7, align 8
  br label %9

9:                                                ; preds = %116, %3
  %10 = load ptr, ptr %6, align 8
  %11 = load ptr, ptr %10, align 8
  %12 = load ptr, ptr %7, align 8
  %13 = icmp ult ptr %11, %12
  br i1 %13, label %14, label %120

14:                                               ; preds = %9
  %15 = load ptr, ptr %6, align 8
  %16 = load ptr, ptr %15, align 8
  %17 = load i32, ptr %16, align 4
  store i32 %17, ptr %8, align 4
  %18 = load i32, ptr %8, align 4
  %19 = icmp ult i32 %18, 128
  br i1 %19, label %20, label %42

20:                                               ; preds = %14
  br label %21

21:                                               ; preds = %20
  %22 = load ptr, ptr %5, align 8
  %23 = getelementptr inbounds %struct.lxb_encoding_encode_t, ptr %22, i32 0, i32 3
  %24 = load i64, ptr %23, align 8
  %25 = load ptr, ptr %5, align 8
  %26 = getelementptr inbounds %struct.lxb_encoding_encode_t, ptr %25, i32 0, i32 2
  %27 = load i64, ptr %26, align 8
  %28 = icmp eq i64 %24, %27
  br i1 %28, label %29, label %30

29:                                               ; preds = %21
  store i32 15, ptr %4, align 4
  br label %121

30:                                               ; preds = %21
  %31 = load i32, ptr %8, align 4
  %32 = trunc i32 %31 to i8
  %33 = load ptr, ptr %5, align 8
  %34 = getelementptr inbounds %struct.lxb_encoding_encode_t, ptr %33, i32 0, i32 1
  %35 = load ptr, ptr %34, align 8
  %36 = load ptr, ptr %5, align 8
  %37 = getelementptr inbounds %struct.lxb_encoding_encode_t, ptr %36, i32 0, i32 3
  %38 = load i64, ptr %37, align 8
  %39 = add i64 %38, 1
  store i64 %39, ptr %37, align 8
  %40 = getelementptr inbounds i8, ptr %35, i64 %38
  store i8 %32, ptr %40, align 1
  br label %41

41:                                               ; preds = %30
  br label %115

42:                                               ; preds = %14
  %43 = load i32, ptr %8, align 4
  %44 = icmp uge i32 %43, 63360
  br i1 %44, label %45, label %72

45:                                               ; preds = %42
  %46 = load i32, ptr %8, align 4
  %47 = icmp ule i32 %46, 63487
  br i1 %47, label %48, label %72

48:                                               ; preds = %45
  br label %49

49:                                               ; preds = %48
  %50 = load ptr, ptr %5, align 8
  %51 = getelementptr inbounds %struct.lxb_encoding_encode_t, ptr %50, i32 0, i32 3
  %52 = load i64, ptr %51, align 8
  %53 = load ptr, ptr %5, align 8
  %54 = getelementptr inbounds %struct.lxb_encoding_encode_t, ptr %53, i32 0, i32 2
  %55 = load i64, ptr %54, align 8
  %56 = icmp eq i64 %52, %55
  br i1 %56, label %57, label %58

57:                                               ; preds = %49
  store i32 15, ptr %4, align 4
  br label %121

58:                                               ; preds = %49
  %59 = load i32, ptr %8, align 4
  %60 = sub i32 %59, 63360
  %61 = add i32 %60, 128
  %62 = trunc i32 %61 to i8
  %63 = load ptr, ptr %5, align 8
  %64 = getelementptr inbounds %struct.lxb_encoding_encode_t, ptr %63, i32 0, i32 1
  %65 = load ptr, ptr %64, align 8
  %66 = load ptr, ptr %5, align 8
  %67 = getelementptr inbounds %struct.lxb_encoding_encode_t, ptr %66, i32 0, i32 3
  %68 = load i64, ptr %67, align 8
  %69 = add i64 %68, 1
  store i64 %69, ptr %67, align 8
  %70 = getelementptr inbounds i8, ptr %65, i64 %68
  store i8 %62, ptr %70, align 1
  br label %71

71:                                               ; preds = %58
  br label %114

72:                                               ; preds = %45, %42
  br label %73

73:                                               ; preds = %72
  %74 = load ptr, ptr %5, align 8
  %75 = getelementptr inbounds %struct.lxb_encoding_encode_t, ptr %74, i32 0, i32 4
  %76 = load ptr, ptr %75, align 8
  %77 = icmp eq ptr %76, null
  br i1 %77, label %78, label %79

78:                                               ; preds = %73
  store i32 1, ptr %4, align 4
  br label %121

79:                                               ; preds = %73
  %80 = load ptr, ptr %5, align 8
  %81 = getelementptr inbounds %struct.lxb_encoding_encode_t, ptr %80, i32 0, i32 3
  %82 = load i64, ptr %81, align 8
  %83 = load ptr, ptr %5, align 8
  %84 = getelementptr inbounds %struct.lxb_encoding_encode_t, ptr %83, i32 0, i32 5
  %85 = load i64, ptr %84, align 8
  %86 = add i64 %82, %85
  %87 = load ptr, ptr %5, align 8
  %88 = getelementptr inbounds %struct.lxb_encoding_encode_t, ptr %87, i32 0, i32 2
  %89 = load i64, ptr %88, align 8
  %90 = icmp ugt i64 %86, %89
  br i1 %90, label %91, label %92

91:                                               ; preds = %79
  store i32 15, ptr %4, align 4
  br label %121

92:                                               ; preds = %79
  %93 = load ptr, ptr %5, align 8
  %94 = getelementptr inbounds %struct.lxb_encoding_encode_t, ptr %93, i32 0, i32 1
  %95 = load ptr, ptr %94, align 8
  %96 = load ptr, ptr %5, align 8
  %97 = getelementptr inbounds %struct.lxb_encoding_encode_t, ptr %96, i32 0, i32 3
  %98 = load i64, ptr %97, align 8
  %99 = getelementptr inbounds i8, ptr %95, i64 %98
  %100 = load ptr, ptr %5, align 8
  %101 = getelementptr inbounds %struct.lxb_encoding_encode_t, ptr %100, i32 0, i32 4
  %102 = load ptr, ptr %101, align 8
  %103 = load ptr, ptr %5, align 8
  %104 = getelementptr inbounds %struct.lxb_encoding_encode_t, ptr %103, i32 0, i32 5
  %105 = load i64, ptr %104, align 8
  call void @llvm.memcpy.p0.p0.i64(ptr align 1 %99, ptr align 1 %102, i64 %105, i1 false)
  %106 = load ptr, ptr %5, align 8
  %107 = getelementptr inbounds %struct.lxb_encoding_encode_t, ptr %106, i32 0, i32 5
  %108 = load i64, ptr %107, align 8
  %109 = load ptr, ptr %5, align 8
  %110 = getelementptr inbounds %struct.lxb_encoding_encode_t, ptr %109, i32 0, i32 3
  %111 = load i64, ptr %110, align 8
  %112 = add i64 %111, %108
  store i64 %112, ptr %110, align 8
  br label %113

113:                                              ; preds = %92
  br label %114

114:                                              ; preds = %113, %71
  br label %115

115:                                              ; preds = %114, %41
  br label %116

116:                                              ; preds = %115
  %117 = load ptr, ptr %6, align 8
  %118 = load ptr, ptr %117, align 8
  %119 = getelementptr inbounds i32, ptr %118, i32 1
  store ptr %119, ptr %117, align 8
  br label %9

120:                                              ; preds = %9
  store i32 0, ptr %4, align 4
  br label %121

121:                                              ; preds = %120, %91, %78, %57, %29
  %122 = load i32, ptr %4, align 4
  ret i32 %122
}