; Function Attrs: nofree norecurse nosync nounwind memory(readwrite, inaccessiblemem: none) uwtable
define hidden noundef i32 @lxb_encoding_encode_x_user_defined(ptr nocapture noundef %0, ptr nocapture noundef %1, ptr noundef readnone %2) local_unnamed_addr #0 {
  %4 = getelementptr inbounds i8, ptr %0, i64 32
  %5 = getelementptr inbounds i8, ptr %0, i64 24
  %6 = load ptr, ptr %1, align 8
  %7 = icmp ult ptr %6, %2
  br i1 %7, label %.lr.ph, label %._crit_edge

.lr.ph:                                           ; preds = %3
  %8 = getelementptr inbounds i8, ptr %0, i64 40
  %9 = getelementptr inbounds i8, ptr %0, i64 16
  %10 = getelementptr inbounds i8, ptr %0, i64 8
  br label %11

11:                                               ; preds = %.lr.ph, %50
  %12 = phi ptr [ %6, %.lr.ph ], [ %52, %50 ]
  %13 = load i32, ptr %12, align 4
  %14 = icmp ult i32 %13, 128
  br i1 %14, label %15, label %24

15:                                               ; preds = %11
  %16 = load i64, ptr %5, align 8
  %17 = load i64, ptr %9, align 8
  %18 = icmp eq i64 %16, %17
  br i1 %18, label %._crit_edge, label %19

19:                                               ; preds = %15
  %20 = trunc i32 %13 to i8
  %21 = load ptr, ptr %10, align 8
  %22 = add i64 %16, 1
  store i64 %22, ptr %5, align 8
  %23 = getelementptr inbounds i8, ptr %21, i64 %16
  store i8 %20, ptr %23, align 1
  br label %50

24:                                               ; preds = %11
  %25 = and i32 %13, -128
  %or.cond = icmp eq i32 %25, 63360
  br i1 %or.cond, label %26, label %35

26:                                               ; preds = %24
  %27 = load i64, ptr %5, align 8
  %28 = load i64, ptr %9, align 8
  %29 = icmp eq i64 %27, %28
  br i1 %29, label %._crit_edge, label %30

30:                                               ; preds = %26
  %31 = trunc i32 %13 to i8
  %32 = load ptr, ptr %10, align 8
  %33 = add i64 %27, 1
  store i64 %33, ptr %5, align 8
  %34 = getelementptr inbounds i8, ptr %32, i64 %27
  store i8 %31, ptr %34, align 1
  br label %50

35:                                               ; preds = %24
  %36 = load ptr, ptr %4, align 8
  %37 = icmp eq ptr %36, null
  br i1 %37, label %._crit_edge, label %38

38:                                               ; preds = %35
  %39 = load i64, ptr %5, align 8
  %40 = load i64, ptr %8, align 8
  %41 = add i64 %40, %39
  %42 = load i64, ptr %9, align 8
  %43 = icmp ugt i64 %41, %42
  br i1 %43, label %._crit_edge, label %44

44:                                               ; preds = %38
  %45 = load ptr, ptr %10, align 8
  %46 = getelementptr inbounds i8, ptr %45, i64 %39
  tail call void @llvm.memcpy.p0.p0.i64(ptr align 1 %46, ptr nonnull align 1 %36, i64 %40, i1 false)
  %47 = load i64, ptr %8, align 8
  %48 = load i64, ptr %5, align 8
  %49 = add i64 %48, %47
  store i64 %49, ptr %5, align 8
  br label %50

50:                                               ; preds = %19, %44, %30
  %51 = load ptr, ptr %1, align 8
  %52 = getelementptr inbounds i8, ptr %51, i64 4
  store ptr %52, ptr %1, align 8
  %53 = icmp ult ptr %52, %2
  br i1 %53, label %11, label %._crit_edge

._crit_edge:                                      ; preds = %15, %26, %35, %38, %50, %3
  %.0 = phi i32 [ 0, %3 ], [ 0, %50 ], [ 15, %38 ], [ 1, %35 ], [ 15, %26 ], [ 15, %15 ]
  ret i32 %.0
}